; Function Attrs: mustprogress uwtable
define hidden noundef zeroext i1 @_ZN4cvc58internal6theory11quantifiers25QuantifiersBoundInference13isFiniteBoundENS0_12NodeTemplateILb1EEES5_(ptr noundef nonnull align 8 dereferenceable(72) %0, ptr noundef readonly captures(none) %1, ptr noundef %2) local_unnamed_addr #4 align 2 personality ptr @__gxx_personality_v0 {
  %4 = alloca %"class.cvc5::internal::NodeTemplate", align 8
  %5 = alloca %"class.cvc5::internal::NodeTemplate", align 8
  %6 = alloca %"class.cvc5::internal::TypeNode", align 8
  %7 = alloca %"class.cvc5::internal::TypeNode", align 8
  %8 = getelementptr inbounds nuw i8, ptr %0, i64 64
  %9 = load ptr, ptr %8, align 8, !tbaa !23
  %.not.not = icmp eq ptr %9, null
  br i1 %.not.not, label %.critedge.thread, label %10

10:                                               ; preds = %3
  %11 = load ptr, ptr %1, align 8, !tbaa !42
  store ptr %11, ptr %4, align 8, !tbaa !42
  %12 = load i64, ptr %11, align 8
  %13 = lshr i64 %12, 40
  %14 = trunc nuw nsw i64 %13 to i32
  %15 = and i32 %14, 1048575
  %16 = icmp samesign ult i32 %15, 1048574
  br i1 %16, label %17, label %22, !prof !35

17:                                               ; preds = %10
  %18 = add i64 %12, 1099511627776
  %19 = and i64 %18, 1152920405095219200
  %20 = and i64 %12, -1152920405095219201
  %21 = or disjoint i64 %19, %20
  store i64 %21, ptr %11, align 8
  br label %_ZN4cvc58internal12NodeTemplateILb1EEC2ERKS2_.exit

22:                                               ; preds = %10
  %23 = icmp eq i32 %15, 1048574
  br i1 %23, label %24, label %_ZN4cvc58internal12NodeTemplateILb1EEC2ERKS2_.exit, !prof !36

24:                                               ; preds = %22
  %25 = or i64 %12, 1152920405095219200
  store i64 %25, ptr %11, align 8
  tail call void @_ZN4cvc58internal4expr9NodeValue20markRefCountMaxedOutEv(ptr noundef nonnull align 8 dereferenceable(24) %11)
  br label %_ZN4cvc58internal12NodeTemplateILb1EEC2ERKS2_.exit

_ZN4cvc58internal12NodeTemplateILb1EEC2ERKS2_.exit: ; preds = %17, %22, %24
  %26 = load ptr, ptr %2, align 8, !tbaa !42
  store ptr %26, ptr %5, align 8, !tbaa !42
  %27 = load i64, ptr %26, align 8
  %28 = lshr i64 %27, 40
  %29 = trunc nuw nsw i64 %28 to i32
  %30 = and i32 %29, 1048575
  %31 = icmp samesign ult i32 %30, 1048574
  br i1 %31, label %32, label %37, !prof !35

32:                                               ; preds = %_ZN4cvc58internal12NodeTemplateILb1EEC2ERKS2_.exit
  %33 = add i64 %27, 1099511627776
  %34 = and i64 %33, 1152920405095219200
  %35 = and i64 %27, -1152920405095219201
  %36 = or disjoint i64 %34, %35
  store i64 %36, ptr %26, align 8
  br label %_ZN4cvc58internal12NodeTemplateILb1EEC2ERKS2_.exit19

37:                                               ; preds = %_ZN4cvc58internal12NodeTemplateILb1EEC2ERKS2_.exit
  %38 = icmp eq i32 %30, 1048574
  br i1 %38, label %39, label %_ZN4cvc58internal12NodeTemplateILb1EEC2ERKS2_.exit19, !prof !36

39:                                               ; preds = %37
  %40 = or i64 %27, 1152920405095219200
  store i64 %40, ptr %26, align 8
  invoke void @_ZN4cvc58internal4expr9NodeValue20markRefCountMaxedOutEv(ptr noundef nonnull align 8 dereferenceable(24) %26)
          to label %_ZN4cvc58internal12NodeTemplateILb1EEC2ERKS2_.exit19 unwind label %69

_ZN4cvc58internal12NodeTemplateILb1EEC2ERKS2_.exit19: ; preds = %37, %32, %39
  %41 = invoke noundef zeroext i1 @_ZNK4cvc58internal6theory11quantifiers15BoundedIntegers7isBoundENS0_12NodeTemplateILb1EEES5_(ptr noundef nonnull align 8 dereferenceable(768) %9, ptr noundef nonnull %4, ptr noundef nonnull %5)
          to label %42 unwind label %71

42:                                               ; preds = %_ZN4cvc58internal12NodeTemplateILb1EEC2ERKS2_.exit19
  %43 = load ptr, ptr %5, align 8, !tbaa !42
  %44 = load i64, ptr %43, align 8
  %45 = and i64 %44, 1152920405095219200
  %.not.i.i = icmp eq i64 %45, 1152920405095219200
  br i1 %.not.i.i, label %_ZN4cvc58internal12NodeTemplateILb1EED2Ev.exit, label %46, !prof !36

46:                                               ; preds = %42
  %47 = add i64 %44, 1152920405095219200
  %48 = and i64 %47, 1152920405095219200
  %49 = and i64 %44, -1152920405095219201
  %50 = or disjoint i64 %48, %49
  store i64 %50, ptr %43, align 8
  %51 = icmp eq i64 %48, 0
  br i1 %51, label %52, label %_ZN4cvc58internal12NodeTemplateILb1EED2Ev.exit, !prof !36

52:                                               ; preds = %46
  invoke void @_ZN4cvc58internal4expr9NodeValue15markForDeletionEv(ptr noundef nonnull align 8 dereferenceable(24) %43)
          to label %_ZN4cvc58internal12NodeTemplateILb1EED2Ev.exit unwind label %53

53:                                               ; preds = %52
  %54 = landingpad { ptr, i32 }
          catch ptr null
  %55 = extractvalue { ptr, i32 } %54, 0
  call void @__clang_call_terminate(ptr %55) #21
  unreachable

_ZN4cvc58internal12NodeTemplateILb1EED2Ev.exit:   ; preds = %42, %46, %52
  %56 = load ptr, ptr %4, align 8, !tbaa !42
  %57 = load i64, ptr %56, align 8
  %58 = and i64 %57, 1152920405095219200
  %.not.i.i20 = icmp eq i64 %58, 1152920405095219200
  br i1 %.not.i.i20, label %.critedge, label %59, !prof !36

59:                                               ; preds = %_ZN4cvc58internal12NodeTemplateILb1EED2Ev.exit
  %60 = add i64 %57, 1152920405095219200
  %61 = and i64 %60, 1152920405095219200
  %62 = and i64 %57, -1152920405095219201
  %63 = or disjoint i64 %61, %62
  store i64 %63, ptr %56, align 8
  %64 = icmp eq i64 %61, 0
  br i1 %64, label %65, label %.critedge, !prof !36

65:                                               ; preds = %59
  invoke void @_ZN4cvc58internal4expr9NodeValue15markForDeletionEv(ptr noundef nonnull align 8 dereferenceable(24) %56)
          to label %.critedge unwind label %66

66:                                               ; preds = %65
  %67 = landingpad { ptr, i32 }
          catch ptr null
  %68 = extractvalue { ptr, i32 } %67, 0
  call void @__clang_call_terminate(ptr %68) #21
  unreachable

.critedge:                                        ; preds = %65, %59, %_ZN4cvc58internal12NodeTemplateILb1EED2Ev.exit
  br i1 %41, label %129, label %.critedge.thread

69:                                               ; preds = %39
  %70 = landingpad { ptr, i32 }
          cleanup
  br label %73

71:                                               ; preds = %_ZN4cvc58internal12NodeTemplateILb1EEC2ERKS2_.exit19
  %72 = landingpad { ptr, i32 }
          cleanup
  call void @_ZN4cvc58internal12NodeTemplateILb1EED2Ev(ptr noundef nonnull align 8 dereferenceable(8) %5) #22
  br label %73

73:                                               ; preds = %69, %71
  %.pn = phi { ptr, i32 } [ %72, %71 ], [ %70, %69 ]
  call void @_ZN4cvc58internal12NodeTemplateILb1EED2Ev(ptr noundef nonnull align 8 dereferenceable(8) %4) #22
  br label %130

.critedge.thread:                                 ; preds = %3, %.critedge
  call void @llvm.lifetime.start.p0(i64 8, ptr nonnull %6) #22
  call void @_ZNK4cvc58internal12NodeTemplateILb1EE7getTypeEb(ptr dead_on_unwind nonnull writable sret(%"class.cvc5::internal::TypeNode") align 8 %6, ptr noundef nonnull align 8 dereferenceable(8) %2, i1 noundef zeroext false)
  %74 = invoke noundef zeroext i1 @_ZNK4cvc58internal8TypeNode19isUninterpretedSortEv(ptr noundef nonnull align 8 dereferenceable(8) %6)
          to label %75 unwind label %80

75:                                               ; preds = %.critedge.thread
  br i1 %74, label %76, label %82

76:                                               ; preds = %75
  %77 = getelementptr inbounds nuw i8, ptr %0, i64 4
  %78 = load i8, ptr %77, align 4, !tbaa !19, !range !40, !noundef !41
  %79 = trunc nuw i8 %78 to i1
  br i1 %79, label %_ZN4cvc58internal8TypeNodeD2Ev.exit, label %82

80:                                               ; preds = %96, %.critedge.thread
  %81 = landingpad { ptr, i32 }
          cleanup
  br label %128

82:                                               ; preds = %76, %75
  %83 = load ptr, ptr %6, align 8, !tbaa !26
  store ptr %83, ptr %7, align 8, !tbaa !26
  %84 = load i64, ptr %83, align 8
  %85 = lshr i64 %84, 40
  %86 = trunc nuw nsw i64 %85 to i32
  %87 = and i32 %86, 1048575
  %88 = icmp samesign ult i32 %87, 1048574
  br i1 %88, label %89, label %94, !prof !35

89:                                               ; preds = %82
  %90 = add i64 %84, 1099511627776
  %91 = and i64 %90, 1152920405095219200
  %92 = and i64 %84, -1152920405095219201
  %93 = or disjoint i64 %91, %92
  store i64 %93, ptr %83, align 8
  br label %_ZN4cvc58internal8TypeNodeC2ERKS1_.exit

94:                                               ; preds = %82
  %95 = icmp eq i32 %87, 1048574
  br i1 %95, label %96, label %_ZN4cvc58internal8TypeNodeC2ERKS1_.exit, !prof !36

96:                                               ; preds = %94
  %97 = or i64 %84, 1152920405095219200
  store i64 %97, ptr %83, align 8
  invoke void @_ZN4cvc58internal4expr9NodeValue20markRefCountMaxedOutEv(ptr noundef nonnull align 8 dereferenceable(24) %83)
          to label %_ZN4cvc58internal8TypeNodeC2ERKS1_.exit unwind label %80

_ZN4cvc58internal8TypeNodeC2ERKS1_.exit:          ; preds = %94, %89, %96
  %98 = invoke noundef zeroext i1 @_ZN4cvc58internal6theory11quantifiers25QuantifiersBoundInference11mayCompleteENS0_8TypeNodeE(ptr noundef nonnull align 8 dereferenceable(72) %0, ptr noundef nonnull %7)
          to label %99 unwind label %113

99:                                               ; preds = %_ZN4cvc58internal8TypeNodeC2ERKS1_.exit
  %100 = load ptr, ptr %7, align 8, !tbaa !26
  %101 = load i64, ptr %100, align 8
  %102 = and i64 %101, 1152920405095219200
  %.not.i.i23 = icmp eq i64 %102, 1152920405095219200
  br i1 %.not.i.i23, label %_ZN4cvc58internal8TypeNodeD2Ev.exit, label %103, !prof !36

103:                                              ; preds = %99
  %104 = add i64 %101, 1152920405095219200
  %105 = and i64 %104, 1152920405095219200
  %106 = and i64 %101, -1152920405095219201
  %107 = or disjoint i64 %105, %106
  store i64 %107, ptr %100, align 8
  %108 = icmp eq i64 %105, 0
  br i1 %108, label %109, label %_ZN4cvc58internal8TypeNodeD2Ev.exit, !prof !36

109:                                              ; preds = %103
  invoke void @_ZN4cvc58internal4expr9NodeValue15markForDeletionEv(ptr noundef nonnull align 8 dereferenceable(24) %100)
          to label %_ZN4cvc58internal8TypeNodeD2Ev.exit unwind label %110

110:                                              ; preds = %109
  %111 = landingpad { ptr, i32 }
          catch ptr null
  %112 = extractvalue { ptr, i32 } %111, 0
  call void @__clang_call_terminate(ptr %112) #21
  unreachable

113:                                              ; preds = %_ZN4cvc58internal8TypeNodeC2ERKS1_.exit
  %114 = landingpad { ptr, i32 }
          cleanup
  call void @_ZN4cvc58internal8TypeNodeD2Ev(ptr noundef nonnull align 8 dereferenceable(8) %7) #22
  br label %128

_ZN4cvc58internal8TypeNodeD2Ev.exit:              ; preds = %109, %103, %99, %76
  %.113 = phi i1 [ true, %76 ], [ %98, %99 ], [ %98, %103 ], [ %98, %109 ]
  %115 = load ptr, ptr %6, align 8, !tbaa !26
  %116 = load i64, ptr %115, align 8
  %117 = and i64 %116, 1152920405095219200
  %.not.i.i24 = icmp eq i64 %117, 1152920405095219200
  br i1 %.not.i.i24, label %_ZN4cvc58internal8TypeNodeD2Ev.exit25, label %118, !prof !36

118:                                              ; preds = %_ZN4cvc58internal8TypeNodeD2Ev.exit
  %119 = add i64 %116, 1152920405095219200
  %120 = and i64 %119, 1152920405095219200
  %121 = and i64 %116, -1152920405095219201
  %122 = or disjoint i64 %120, %121
  store i64 %122, ptr %115, align 8
  %123 = icmp eq i64 %120, 0
  br i1 %123, label %124, label %_ZN4cvc58internal8TypeNodeD2Ev.exit25, !prof !36

124:                                              ; preds = %118
  invoke void @_ZN4cvc58internal4expr9NodeValue15markForDeletionEv(ptr noundef nonnull align 8 dereferenceable(24) %115)
          to label %_ZN4cvc58internal8TypeNodeD2Ev.exit25 unwind label %125

125:                                              ; preds = %124
  %126 = landingpad { ptr, i32 }
          catch ptr null
  %127 = extractvalue { ptr, i32 } %126, 0
  call void @__clang_call_terminate(ptr %127) #21
  unreachable

_ZN4cvc58internal8TypeNodeD2Ev.exit25:            ; preds = %_ZN4cvc58internal8TypeNodeD2Ev.exit, %118, %124
  call void @llvm.lifetime.end.p0(i64 8, ptr nonnull %6) #22
  br label %129

128:                                              ; preds = %113, %80
  %.pn16 = phi { ptr, i32 } [ %114, %113 ], [ %81, %80 ]
  call void @_ZN4cvc58internal8TypeNodeD2Ev(ptr noundef nonnull align 8 dereferenceable(8) %6) #22
  call void @llvm.lifetime.end.p0(i64 8, ptr nonnull %6) #22
  br label %130

129:                                              ; preds = %.critedge, %_ZN4cvc58internal8TypeNodeD2Ev.exit25
  %.012 = phi i1 [ %.113, %_ZN4cvc58internal8TypeNodeD2Ev.exit25 ], [ true, %.critedge ]
  ret i1 %.012

130:                                              ; preds = %73, %128
  %.pn16.pn = phi { ptr, i32 } [ %.pn16, %128 ], [ %.pn, %73 ]
  resume { ptr, i32 } %.pn16.pn
}